target datalayout = "e-m:e-p270:32:32-p271:32:32-p272:64:64-i64:64-i128:128-f80:128-n8:16:32:64-S128"
target triple = "x86_64-pc-linux-gnu"

%"struct.std::_Bit_reference" = type { ptr, i64 }
%"class.ceres::SubsetManifold" = type { %"class.ceres::Manifold", i32, %"class.std::vector" }
%"class.ceres::Manifold" = type { ptr }
%"class.std::vector" = type { %"struct.std::_Bvector_base" }
%"struct.std::_Bvector_base" = type { %"struct.std::_Bvector_base<std::allocator<bool>>::_Bvector_impl" }
%"struct.std::_Bvector_base<std::allocator<bool>>::_Bvector_impl" = type { %"struct.std::_Bvector_base<std::allocator<bool>>::_Bvector_impl_data" }
%"struct.std::_Bvector_base<std::allocator<bool>>::_Bvector_impl_data" = type { %"struct.std::_Bit_iterator", %"struct.std::_Bit_iterator", ptr }
%"struct.std::_Bit_iterator" = type { %"struct.std::_Bit_iterator_base.base", [4 x i8] }
%"struct.std::_Bit_iterator_base.base" = type <{ ptr, i32 }>
%"struct.std::_Bit_const_iterator" = type { %"struct.std::_Bit_iterator_base.base", [4 x i8] }
%"struct.std::_Bit_iterator_base" = type <{ ptr, i32, [4 x i8] }>

; Function Attrs: mustprogress nounwind uwtable
define linkonce_odr hidden void @_ZNSt18_Bit_iterator_base7_M_incrEl(ptr noundef nonnull align 8 dereferenceable(12) %0, i64 noundef %1) #1 comdat align 2 {
  %3 = alloca ptr, align 8
  %4 = alloca i64, align 8
  %5 = alloca i64, align 8
  store ptr %0, ptr %3, align 8
  store i64 %1, ptr %4, align 8
  %6 = load ptr, ptr %3, align 8
  %7 = load i64, ptr %4, align 8
  %8 = getelementptr inbounds %"struct.std::_Bit_iterator_base", ptr %6, i32 0, i32 1
  %9 = load i32, ptr %8, align 8
  %10 = zext i32 %9 to i64
  %11 = add nsw i64 %7, %10
  store i64 %11, ptr %5, align 8
  %12 = load i64, ptr %5, align 8
  %13 = sdiv i64 %12, 64
  %14 = getelementptr inbounds %"struct.std::_Bit_iterator_base", ptr %6, i32 0, i32 0
  %15 = load ptr, ptr %14, align 8
  %16 = getelementptr inbounds i64, ptr %15, i64 %13
  store ptr %16, ptr %14, align 8
  %17 = load i64, ptr %5, align 8
  %18 = srem i64 %17, 64
  store i64 %18, ptr %5, align 8
  %19 = load i64, ptr %5, align 8
  %20 = icmp slt i64 %19, 0
  br i1 %20, label %21, label %27

21:                                               ; preds = %2
  %22 = load i64, ptr %5, align 8
  %23 = add nsw i64 %22, 64
  store i64 %23, ptr %5, align 8
  %24 = getelementptr inbounds %"struct.std::_Bit_iterator_base", ptr %6, i32 0, i32 0
  %25 = load ptr, ptr %24, align 8
  %26 = getelementptr inbounds i64, ptr %25, i32 -1
  store ptr %26, ptr %24, align 8
  br label %27

27:                                               ; preds = %21, %2
  %28 = load i64, ptr %5, align 8
  %29 = trunc i64 %28 to i32
  %30 = getelementptr inbounds %"struct.std::_Bit_iterator_base", ptr %6, i32 0, i32 1
  store i32 %29, ptr %30, align 8
  ret void
}

; Function Attrs: mustprogress nounwind uwtable
define linkonce_odr hidden noundef zeroext i1 @_ZNKSt14_Bit_referencecvbEv(ptr noundef nonnull align 8 dereferenceable(16) %0) #1 comdat align 2 {
  %2 = alloca ptr, align 8
  store ptr %0, ptr %2, align 8
  %3 = load ptr, ptr %2, align 8
  %4 = getelementptr inbounds %"struct.std::_Bit_reference", ptr %3, i32 0, i32 0
  %5 = load ptr, ptr %4, align 8
  %6 = load i64, ptr %5, align 8
  %7 = getelementptr inbounds %"struct.std::_Bit_reference", ptr %3, i32 0, i32 1
  %8 = load i64, ptr %7, align 8
  %9 = and i64 %6, %8
  %10 = icmp ne i64 %9, 0
  %11 = xor i1 %10, true
  %12 = xor i1 %11, true
  ret i1 %12
}

; Function Attrs: mustprogress nounwind uwtable
define linkonce_odr hidden void @_ZNSt14_Bit_referenceC2EPmm(ptr noundef nonnull align 8 dereferenceable(16) %0, ptr noundef %1, i64 noundef %2) unnamed_addr #1 comdat align 2 {
  %4 = alloca ptr, align 8
  %5 = alloca ptr, align 8
  %6 = alloca i64, align 8
  store ptr %0, ptr %4, align 8
  store ptr %1, ptr %5, align 8
  store i64 %2, ptr %6, align 8
  %7 = load ptr, ptr %4, align 8
  %8 = getelementptr inbounds %"struct.std::_Bit_reference", ptr %7, i32 0, i32 0
  %9 = load ptr, ptr %5, align 8
  store ptr %9, ptr %8, align 8
  %10 = getelementptr inbounds %"struct.std::_Bit_reference", ptr %7, i32 0, i32 1
  %11 = load i64, ptr %6, align 8
  store i64 %11, ptr %10, align 8
  ret void
}

; Function Attrs: mustprogress nounwind uwtable
define linkonce_odr hidden noundef nonnull align 8 dereferenceable(12) ptr @_ZNSt19_Bit_const_iteratorpLEl(ptr noundef nonnull align 8 dereferenceable(12) %0, i64 noundef %1) #1 comdat align 2 {
  %3 = alloca ptr, align 8
  %4 = alloca i64, align 8
  store ptr %0, ptr %3, align 8
  store i64 %1, ptr %4, align 8
  %5 = load ptr, ptr %3, align 8
  %6 = load i64, ptr %4, align 8
  call void @_ZNSt18_Bit_iterator_base7_M_incrEl(ptr noundef nonnull align 8 dereferenceable(12) %5, i64 noundef %6)
  ret ptr %5
}

; Function Attrs: mustprogress nounwind uwtable
define linkonce_odr hidden void @_ZNSt18_Bit_iterator_baseC2EPmj(ptr noundef nonnull align 8 dereferenceable(12) %0, ptr noundef %1, i32 noundef %2) unnamed_addr #1 comdat align 2 {
  %4 = alloca ptr, align 8
  %5 = alloca ptr, align 8
  %6 = alloca i32, align 4
  store ptr %0, ptr %4, align 8
  store ptr %1, ptr %5, align 8
  store i32 %2, ptr %6, align 4
  %7 = load ptr, ptr %4, align 8
  %8 = getelementptr inbounds %"struct.std::_Bit_iterator_base", ptr %7, i32 0, i32 0
  %9 = load ptr, ptr %5, align 8
  store ptr %9, ptr %8, align 8
  %10 = getelementptr inbounds %"struct.std::_Bit_iterator_base", ptr %7, i32 0, i32 1
  %11 = load i32, ptr %6, align 4
  store i32 %11, ptr %10, align 8
  ret void
}

; Function Attrs: mustprogress nounwind uwtable
define linkonce_odr hidden void @_ZNSt19_Bit_const_iteratorC2ERKSt13_Bit_iterator(ptr noundef nonnull align 8 dereferenceable(12) %0, ptr noundef nonnull align 8 dereferenceable(12) %1) unnamed_addr #1 comdat align 2 {
  %3 = alloca ptr, align 8
  %4 = alloca ptr, align 8
  store ptr %0, ptr %3, align 8
  store ptr %1, ptr %4, align 8
  %5 = load ptr, ptr %3, align 8
  %6 = load ptr, ptr %4, align 8
  %7 = getelementptr inbounds %"struct.std::_Bit_iterator_base", ptr %6, i32 0, i32 0
  %8 = load ptr, ptr %7, align 8
  %9 = load ptr, ptr %4, align 8
  %10 = getelementptr inbounds %"struct.std::_Bit_iterator_base", ptr %9, i32 0, i32 1
  %11 = load i32, ptr %10, align 8
  call void @_ZNSt18_Bit_iterator_baseC2EPmj(ptr noundef nonnull align 8 dereferenceable(12) %5, ptr noundef %8, i32 noundef %11)
  ret void
}

; Function Attrs: mustprogress uwtable
define linkonce_odr hidden noundef zeroext i1 @_ZNKSt19_Bit_const_iteratordeEv(ptr noundef nonnull align 8 dereferenceable(12) %0) #2 comdat align 2 {
  %2 = alloca ptr, align 8
  %3 = alloca %"struct.std::_Bit_reference", align 8
  store ptr %0, ptr %2, align 8
  %4 = load ptr, ptr %2, align 8
  %5 = getelementptr inbounds %"struct.std::_Bit_iterator_base", ptr %4, i32 0, i32 0
  %6 = load ptr, ptr %5, align 8
  %7 = getelementptr inbounds %"struct.std::_Bit_iterator_base", ptr %4, i32 0, i32 1
  %8 = load i32, ptr %7, align 8
  %9 = zext i32 %8 to i64
  %10 = shl i64 1, %9
  call void @_ZNSt14_Bit_referenceC2EPmm(ptr noundef nonnull align 8 dereferenceable(16) %3, ptr noundef %6, i64 noundef %10)
  %11 = call noundef zeroext i1 @_ZNKSt14_Bit_referencecvbEv(ptr noundef nonnull align 8 dereferenceable(16) %3) #13
  ret i1 %11
}

; Function Attrs: mustprogress uwtable
define linkonce_odr { ptr, i32 } @_ZStplRKSt19_Bit_const_iteratorl(ptr noundef nonnull align 8 dereferenceable(12) %0, i64 noundef %1) #2 comdat {
  %3 = alloca %"struct.std::_Bit_const_iterator", align 8
  %4 = alloca ptr, align 8
  %5 = alloca i64, align 8
  store ptr %0, ptr %4, align 8
  store i64 %1, ptr %5, align 8
  %6 = load ptr, ptr %4, align 8
  call void @llvm.memcpy.p0.p0.i64(ptr align 8 %3, ptr align 8 %6, i64 16, i1 false)
  %7 = load i64, ptr %5, align 8
  %8 = call noundef nonnull align 8 dereferenceable(12) ptr @_ZNSt19_Bit_const_iteratorpLEl(ptr noundef nonnull align 8 dereferenceable(12) %3, i64 noundef %7)
  %9 = load { ptr, i32 }, ptr %3, align 8
  ret { ptr, i32 } %9
}

; Function Attrs: mustprogress nounwind uwtable
define linkonce_odr hidden void @_ZNSt19_Bit_const_iteratorC2EPmj(ptr noundef nonnull align 8 dereferenceable(12) %0, ptr noundef %1, i32 noundef %2) unnamed_addr #1 comdat align 2 {
  %4 = alloca ptr, align 8
  %5 = alloca ptr, align 8
  %6 = alloca i32, align 4
  store ptr %0, ptr %4, align 8
  store ptr %1, ptr %5, align 8
  store i32 %2, ptr %6, align 4
  %7 = load ptr, ptr %4, align 8
  %8 = load ptr, ptr %5, align 8
  %9 = load i32, ptr %6, align 4
  call void @_ZNSt18_Bit_iterator_baseC2EPmj(ptr noundef nonnull align 8 dereferenceable(12) %7, ptr noundef %8, i32 noundef %9)
  ret void
}

; Function Attrs: noreturn nounwind uwtable
define linkonce_odr hidden void @__clang_call_terminate(ptr noundef %0) #6 comdat {
  %2 = call ptr @__cxa_begin_catch(ptr %0) #13
  call void @_ZSt9terminatev() #18
  unreachable
}

; Function Attrs: mustprogress nounwind uwtable
define linkonce_odr noundef i64 @_ZStmiRKSt18_Bit_iterator_baseS1_(ptr noundef nonnull align 8 dereferenceable(12) %0, ptr noundef nonnull align 8 dereferenceable(12) %1) #1 comdat {
  %3 = alloca ptr, align 8
  %4 = alloca ptr, align 8
  store ptr %0, ptr %3, align 8
  store ptr %1, ptr %4, align 8
  %5 = load ptr, ptr %3, align 8
  %6 = getelementptr inbounds %"struct.std::_Bit_iterator_base", ptr %5, i32 0, i32 0
  %7 = load ptr, ptr %6, align 8
  %8 = load ptr, ptr %4, align 8
  %9 = getelementptr inbounds %"struct.std::_Bit_iterator_base", ptr %8, i32 0, i32 0
  %10 = load ptr, ptr %9, align 8
  %11 = ptrtoint ptr %7 to i64
  %12 = ptrtoint ptr %10 to i64
  %13 = sub i64 %11, %12
  %14 = sdiv exact i64 %13, 8
  %15 = mul nsw i64 64, %14
  %16 = load ptr, ptr %3, align 8
  %17 = getelementptr inbounds %"struct.std::_Bit_iterator_base", ptr %16, i32 0, i32 1
  %18 = load i32, ptr %17, align 8
  %19 = zext i32 %18 to i64
  %20 = add nsw i64 %15, %19
  %21 = load ptr, ptr %4, align 8
  %22 = getelementptr inbounds %"struct.std::_Bit_iterator_base", ptr %21, i32 0, i32 1
  %23 = load i32, ptr %22, align 8
  %24 = zext i32 %23 to i64
  %25 = sub nsw i64 %20, %24
  ret i64 %25
}

; Function Attrs: mustprogress nounwind uwtable
define linkonce_odr hidden { ptr, i32 } @_ZNKSt6vectorIbSaIbEE3endEv(ptr noundef nonnull align 8 dereferenceable(40) %0) #1 comdat align 2 personality ptr @__gxx_personality_v0 {
  %2 = alloca %"struct.std::_Bit_const_iterator", align 8
  %3 = alloca ptr, align 8
  store ptr %0, ptr %3, align 8
  %4 = load ptr, ptr %3, align 8
  %5 = getelementptr inbounds %"struct.std::_Bvector_base", ptr %4, i32 0, i32 0
  %6 = getelementptr inbounds %"struct.std::_Bvector_base<std::allocator<bool>>::_Bvector_impl_data", ptr %5, i32 0, i32 1
  invoke void @_ZNSt19_Bit_const_iteratorC2ERKSt13_Bit_iterator(ptr noundef nonnull align 8 dereferenceable(12) %2, ptr noundef nonnull align 8 dereferenceable(12) %6)
          to label %7 unwind label %9

7:                                                ; preds = %1
  %8 = load { ptr, i32 }, ptr %2, align 8
  ret { ptr, i32 } %8

9:                                                ; preds = %1
  %10 = landingpad { ptr, i32 }
          catch ptr null
  %11 = extractvalue { ptr, i32 } %10, 0
  call void @__clang_call_terminate(ptr %11) #18
  unreachable
}

; Function Attrs: mustprogress uwtable
define linkonce_odr hidden noundef zeroext i1 @_ZNKSt19_Bit_const_iteratorixEl(ptr noundef nonnull align 8 dereferenceable(12) %0, i64 noundef %1) #2 comdat align 2 {
  %3 = alloca ptr, align 8
  %4 = alloca i64, align 8
  %5 = alloca %"struct.std::_Bit_const_iterator", align 8
  store ptr %0, ptr %3, align 8
  store i64 %1, ptr %4, align 8
  %6 = load ptr, ptr %3, align 8
  %7 = load i64, ptr %4, align 8
  %8 = call { ptr, i32 } @_ZStplRKSt19_Bit_const_iteratorl(ptr noundef nonnull align 8 dereferenceable(12) %6, i64 noundef %7)
  %9 = getelementptr inbounds { ptr, i32 }, ptr %5, i32 0, i32 0
  %10 = extractvalue { ptr, i32 } %8, 0
  store ptr %10, ptr %9, align 8
  %11 = getelementptr inbounds { ptr, i32 }, ptr %5, i32 0, i32 1
  %12 = extractvalue { ptr, i32 } %8, 1
  store i32 %12, ptr %11, align 8
  %13 = call noundef zeroext i1 @_ZNKSt19_Bit_const_iteratordeEv(ptr noundef nonnull align 8 dereferenceable(12) %5)
  ret i1 %13
}

; Function Attrs: mustprogress nounwind uwtable
define linkonce_odr hidden { ptr, i32 } @_ZNKSt6vectorIbSaIbEE5beginEv(ptr noundef nonnull align 8 dereferenceable(40) %0) #1 comdat align 2 personality ptr @__gxx_personality_v0 {
  %2 = alloca %"struct.std::_Bit_const_iterator", align 8
  %3 = alloca ptr, align 8
  store ptr %0, ptr %3, align 8
  %4 = load ptr, ptr %3, align 8
  %5 = getelementptr inbounds %"struct.std::_Bvector_base", ptr %4, i32 0, i32 0
  %6 = getelementptr inbounds %"struct.std::_Bvector_base<std::allocator<bool>>::_Bvector_impl_data", ptr %5, i32 0, i32 0
  %7 = getelementptr inbounds %"struct.std::_Bit_iterator_base", ptr %6, i32 0, i32 0
  %8 = load ptr, ptr %7, align 8
  invoke void @_ZNSt19_Bit_const_iteratorC2EPmj(ptr noundef nonnull align 8 dereferenceable(12) %2, ptr noundef %8, i32 noundef 0)
          to label %9 unwind label %11

9:                                                ; preds = %1
  %10 = load { ptr, i32 }, ptr %2, align 8
  ret { ptr, i32 } %10

11:                                               ; preds = %1
  %12 = landingpad { ptr, i32 }
          catch ptr null
  %13 = extractvalue { ptr, i32 } %12, 0
  call void @__clang_call_terminate(ptr %13) #18
  unreachable
}

; Function Attrs: mustprogress nounwind uwtable
define linkonce_odr hidden noundef i64 @_ZNKSt6vectorIbSaIbEE4sizeEv(ptr noundef nonnull align 8 dereferenceable(40) %0) #1 comdat align 2 personality ptr @__gxx_personality_v0 {
  %2 = alloca ptr, align 8
  %3 = alloca %"struct.std::_Bit_const_iterator", align 8
  %4 = alloca %"struct.std::_Bit_const_iterator", align 8
  store ptr %0, ptr %2, align 8
  %5 = load ptr, ptr %2, align 8
  %6 = call { ptr, i32 } @_ZNKSt6vectorIbSaIbEE3endEv(ptr noundef nonnull align 8 dereferenceable(40) %5) #13
  %7 = getelementptr inbounds { ptr, i32 }, ptr %3, i32 0, i32 0
  %8 = extractvalue { ptr, i32 } %6, 0
  store ptr %8, ptr %7, align 8
  %9 = getelementptr inbounds { ptr, i32 }, ptr %3, i32 0, i32 1
  %10 = extractvalue { ptr, i32 } %6, 1
  store i32 %10, ptr %9, align 8
  %11 = call { ptr, i32 } @_ZNKSt6vectorIbSaIbEE5beginEv(ptr noundef nonnull align 8 dereferenceable(40) %5) #13
  %12 = getelementptr inbounds { ptr, i32 }, ptr %4, i32 0, i32 0
  %13 = extractvalue { ptr, i32 } %11, 0
  store ptr %13, ptr %12, align 8
  %14 = getelementptr inbounds { ptr, i32 }, ptr %4, i32 0, i32 1
  %15 = extractvalue { ptr, i32 } %11, 1
  store i32 %15, ptr %14, align 8
  %16 = invoke noundef i64 @_ZStmiRKSt18_Bit_iterator_baseS1_(ptr noundef nonnull align 8 dereferenceable(12) %3, ptr noundef nonnull align 8 dereferenceable(12) %4)
          to label %17 unwind label %18

17:                                               ; preds = %1
  ret i64 %16

18:                                               ; preds = %1
  %19 = landingpad { ptr, i32 }
          catch ptr null
  %20 = extractvalue { ptr, i32 } %19, 0
  call void @__clang_call_terminate(ptr %20) #18
  unreachable
}

; Function Attrs: mustprogress uwtable
define linkonce_odr hidden noundef zeroext i1 @_ZNKSt6vectorIbSaIbEEixEm(ptr noundef nonnull align 8 dereferenceable(40) %0, i64 noundef %1) #2 comdat align 2 {
  %3 = alloca ptr, align 8
  %4 = alloca i64, align 8
  %5 = alloca %"struct.std::_Bit_const_iterator", align 8
  store ptr %0, ptr %3, align 8
  store i64 %1, ptr %4, align 8
  %6 = load ptr, ptr %3, align 8
  %7 = call { ptr, i32 } @_ZNKSt6vectorIbSaIbEE5beginEv(ptr noundef nonnull align 8 dereferenceable(40) %6) #13
  %8 = getelementptr inbounds { ptr, i32 }, ptr %5, i32 0, i32 0
  %9 = extractvalue { ptr, i32 } %7, 0
  store ptr %9, ptr %8, align 8
  %10 = getelementptr inbounds { ptr, i32 }, ptr %5, i32 0, i32 1
  %11 = extractvalue { ptr, i32 } %7, 1
  store i32 %11, ptr %10, align 8
  %12 = load i64, ptr %4, align 8
  %13 = call noundef zeroext i1 @_ZNKSt19_Bit_const_iteratorixEl(ptr noundef nonnull align 8 dereferenceable(12) %5, i64 noundef %12)
  ret i1 %13
}

; Function Attrs: mustprogress nounwind uwtable
define hidden noundef i32 @_ZNK5ceres14SubsetManifold11AmbientSizeEv(ptr noundef nonnull align 8 dereferenceable(56) %0) unnamed_addr #1 align 2 {
  %2 = alloca ptr, align 8
  store ptr %0, ptr %2, align 8
  %3 = load ptr, ptr %2, align 8
  %4 = getelementptr inbounds %"class.ceres::SubsetManifold", ptr %3, i32 0, i32 2
  %5 = call noundef i64 @_ZNKSt6vectorIbSaIbEE4sizeEv(ptr noundef nonnull align 8 dereferenceable(40) %4) #13
  %6 = trunc i64 %5 to i32
  ret i32 %6
}

; Function Attrs: mustprogress uwtable
define hidden noundef zeroext i1 @_ZNK5ceres14SubsetManifold27RightMultiplyByPlusJacobianEPKdiS2_Pd(ptr noundef nonnull align 8 dereferenceable(56) %0, ptr noundef %1, i32 noundef %2, ptr noundef %3, ptr noundef %4) unnamed_addr #2 align 2 {
  %6 = alloca i1, align 1
  %7 = alloca ptr, align 8
  %8 = alloca ptr, align 8
  %9 = alloca i32, align 4
  %10 = alloca ptr, align 8
  %11 = alloca ptr, align 8
  %12 = alloca i32, align 4
  %13 = alloca i32, align 4
  %14 = alloca i32, align 4
  %15 = alloca i32, align 4
  store ptr %0, ptr %7, align 8
  store ptr %1, ptr %8, align 8
  store i32 %2, ptr %9, align 4
  store ptr %3, ptr %10, align 8
  store ptr %4, ptr %11, align 8
  %16 = load ptr, ptr %7, align 8
  %17 = getelementptr inbounds %"class.ceres::SubsetManifold", ptr %16, i32 0, i32 1
  %18 = load i32, ptr %17, align 8
  %19 = icmp eq i32 %18, 0
  br i1 %19, label %20, label %21

20:                                               ; preds = %5
  store i1 true, ptr %6, align 1
  br label %66

21:                                               ; preds = %5
  %22 = call noundef i32 @_ZNK5ceres14SubsetManifold11AmbientSizeEv(ptr noundef nonnull align 8 dereferenceable(56) %16)
  store i32 %22, ptr %12, align 4
  store i32 0, ptr %13, align 4
  br label %23

23:                                               ; preds = %62, %21
  %24 = load i32, ptr %13, align 4
  %25 = load i32, ptr %9, align 4
  %26 = icmp slt i32 %24, %25
  br i1 %26, label %27, label %65

27:                                               ; preds = %23
  store i32 0, ptr %14, align 4
  store i32 0, ptr %15, align 4
  br label %28

28:                                               ; preds = %58, %27
  %29 = load i32, ptr %14, align 4
  %30 = load i32, ptr %12, align 4
  %31 = icmp slt i32 %29, %30
  br i1 %31, label %32, label %61

32:                                               ; preds = %28
  %33 = getelementptr inbounds %"class.ceres::SubsetManifold", ptr %16, i32 0, i32 2
  %34 = load i32, ptr %14, align 4
  %35 = sext i32 %34 to i64
  %36 = call noundef zeroext i1 @_ZNKSt6vectorIbSaIbEEixEm(ptr noundef nonnull align 8 dereferenceable(40) %33, i64 noundef %35)
  br i1 %36, label %57, label %37

37:                                               ; preds = %32
  %38 = load ptr, ptr %10, align 8
  %39 = load i32, ptr %13, align 4
  %40 = load i32, ptr %12, align 4
  %41 = mul nsw i32 %39, %40
  %42 = load i32, ptr %14, align 4
  %43 = add nsw i32 %41, %42
  %44 = sext i32 %43 to i64
  %45 = getelementptr inbounds double, ptr %38, i64 %44
  %46 = load double, ptr %45, align 8
  %47 = load ptr, ptr %11, align 8
  %48 = load i32, ptr %13, align 4
  %49 = getelementptr inbounds %"class.ceres::SubsetManifold", ptr %16, i32 0, i32 1
  %50 = load i32, ptr %49, align 8
  %51 = mul nsw i32 %48, %50
  %52 = load i32, ptr %15, align 4
  %53 = add nsw i32 %52, 1
  store i32 %53, ptr %15, align 4
  %54 = add nsw i32 %51, %52
  %55 = sext i32 %54 to i64
  %56 = getelementptr inbounds double, ptr %47, i64 %55
  store double %46, ptr %56, align 8
  br label %57

57:                                               ; preds = %37, %32
  br label %58

58:                                               ; preds = %57
  %59 = load i32, ptr %14, align 4
  %60 = add nsw i32 %59, 1
  store i32 %60, ptr %14, align 4
  br label %28, !llvm.loop !7

61:                                               ; preds = %28
  br label %62

62:                                               ; preds = %61
  %63 = load i32, ptr %13, align 4
  %64 = add nsw i32 %63, 1
  store i32 %64, ptr %13, align 4
  br label %23, !llvm.loop !8

65:                                               ; preds = %23
  store i1 true, ptr %6, align 1
  br label %66

66:                                               ; preds = %65, %20
  %67 = load i1, ptr %6, align 1
  ret i1 %67
}