; Function Attrs: mustprogress nofree norecurse nosync nounwind memory(read, argmem: readwrite, inaccessiblemem: none) uwtable
define hidden noundef zeroext i1 @_ZNK5ceres14SubsetManifold27RightMultiplyByPlusJacobianEPKdiS2_Pd(ptr nocapture noundef nonnull readonly align 8 dereferenceable(56) %0, ptr nocapture readnone %1, i32 noundef %2, ptr nocapture noundef readonly %3, ptr nocapture noundef writeonly %4) unnamed_addr #8 align 2 personality ptr @__gxx_personality_v0 {
  %6 = getelementptr inbounds i8, ptr %0, i64 8
  %7 = load i32, ptr %6, align 8
  %8 = icmp eq i32 %7, 0
  br i1 %8, label %.loopexit, label %9

9:                                                ; preds = %5
  %10 = getelementptr inbounds i8, ptr %0, i64 16
  %11 = getelementptr inbounds i8, ptr %0, i64 32
  %12 = load ptr, ptr %11, align 8
  %13 = getelementptr inbounds i8, ptr %0, i64 40
  %14 = load i32, ptr %13, align 8
  %15 = load ptr, ptr %10, align 8
  %16 = ptrtoint ptr %12 to i64
  %17 = ptrtoint ptr %15 to i64
  %18 = sub i64 %16, %17
  %.tr.i = trunc i64 %18 to i32
  %19 = shl i32 %.tr.i, 3
  %20 = add i32 %19, %14
  %21 = icmp sgt i32 %2, 0
  %22 = icmp sgt i32 %20, 0
  %or.cond = select i1 %21, i1 %22, i1 false
  br i1 %or.cond, label %.preheader.us.preheader, label %.loopexit

.preheader.us.preheader:                          ; preds = %9
  %23 = zext nneg i32 %20 to i64
  %wide.trip.count = zext nneg i32 %2 to i64
  br label %.preheader.us

.preheader.us:                                    ; preds = %.preheader.us.preheader, %._crit_edge.us
  %indvars.iv24 = phi i64 [ 0, %.preheader.us.preheader ], [ %indvars.iv.next25, %._crit_edge.us ]
  %24 = trunc i64 %indvars.iv24 to i32
  %25 = mul i32 %20, %24
  %26 = zext i32 %25 to i64
  %invariant.gep = getelementptr double, ptr %3, i64 %26
  %27 = trunc i64 %indvars.iv24 to i32
  br label %28

28:                                               ; preds = %.preheader.us, %44
  %indvars.iv = phi i64 [ 0, %.preheader.us ], [ %indvars.iv.next, %44 ]
  %.020.us = phi i32 [ 0, %.preheader.us ], [ %.1.us, %44 ]
  %29 = load ptr, ptr %10, align 8
  %30 = lshr i64 %indvars.iv, 6
  %.zext.us = and i64 %30, 67108863
  %31 = getelementptr inbounds i64, ptr %29, i64 %.zext.us
  %32 = and i64 %indvars.iv, 63
  %33 = shl nuw i64 1, %32
  %34 = load i64, ptr %31, align 8
  %35 = and i64 %34, %33
  %.not.us = icmp eq i64 %35, 0
  br i1 %.not.us, label %36, label %44

36:                                               ; preds = %28
  %gep = getelementptr double, ptr %invariant.gep, i64 %indvars.iv
  %37 = load double, ptr %gep, align 8
  %38 = load i32, ptr %6, align 8
  %39 = mul nsw i32 %38, %27
  %40 = add nsw i32 %.020.us, 1
  %41 = add nsw i32 %39, %.020.us
  %42 = sext i32 %41 to i64
  %43 = getelementptr inbounds double, ptr %4, i64 %42
  store double %37, ptr %43, align 8
  br label %44

44:                                               ; preds = %36, %28
  %.1.us = phi i32 [ %.020.us, %28 ], [ %40, %36 ]
  %indvars.iv.next = add nuw nsw i64 %indvars.iv, 1
  %45 = icmp ult i64 %indvars.iv.next, %23
  br i1 %45, label %28, label %._crit_edge.us, !llvm.loop !14

._crit_edge.us:                                   ; preds = %44
  %indvars.iv.next25 = add nuw nsw i64 %indvars.iv24, 1
  %exitcond.not = icmp eq i64 %indvars.iv.next25, %wide.trip.count
  br i1 %exitcond.not, label %.loopexit, label %.preheader.us, !llvm.loop !15

.loopexit:                                        ; preds = %._crit_edge.us, %9, %5
  ret i1 true
}